target datalayout = "e-m:e-p270:32:32-p271:32:32-p272:64:64-i64:64-i128:128-f80:128-n8:16:32:64-S128"
target triple = "x86_64-pc-linux-gnu"

; Function Attrs: null_pointer_is_valid sspstrong uwtable
define hidden void @rf4ce_aes_cmac(ptr noundef %0, i64 noundef %1, ptr noundef %2, ptr noundef %3) #2 {
  %5 = alloca ptr, align 8
  %6 = alloca i64, align 8
  %7 = alloca ptr, align 8
  %8 = alloca ptr, align 8
  %9 = alloca ptr, align 8
  %10 = alloca i64, align 8
  %11 = alloca i32, align 4
  store ptr %0, ptr %5, align 8
  store i64 %1, ptr %6, align 8
  store ptr %2, ptr %7, align 8
  store ptr %3, ptr %8, align 8
  call void @llvm.lifetime.start.p0(i64 8, ptr %9) #9
  call void @llvm.lifetime.start.p0(i64 8, ptr %10) #9
  %12 = load i64, ptr %6, align 8
  store i64 %12, ptr %10, align 8
  %13 = call i32 @gcry_mac_open(ptr noundef %9, i32 noundef 201, i32 noundef 0, ptr noundef null)
  %14 = icmp ne i32 %13, 0
  br i1 %14, label %15, label %16

15:                                               ; preds = %4
  store i32 1, ptr %11, align 4
  br label %40

16:                                               ; preds = %4
  %17 = load ptr, ptr %9, align 8
  %18 = load ptr, ptr %7, align 8
  %19 = call i32 @gcry_mac_setkey(ptr noundef %17, ptr noundef %18, i64 noundef 16)
  %20 = icmp ne i32 %19, 0
  br i1 %20, label %21, label %23

21:                                               ; preds = %16
  %22 = load ptr, ptr %9, align 8
  call void @gcry_mac_close(ptr noundef %22)
  store i32 1, ptr %11, align 4
  br label %40

23:                                               ; preds = %16
  %24 = load ptr, ptr %9, align 8
  %25 = load ptr, ptr %5, align 8
  %26 = load i64, ptr %6, align 8
  %27 = call i32 @gcry_mac_write(ptr noundef %24, ptr noundef %25, i64 noundef %26)
  %28 = icmp ne i32 %27, 0
  br i1 %28, label %29, label %31

29:                                               ; preds = %23
  %30 = load ptr, ptr %9, align 8
  call void @gcry_mac_close(ptr noundef %30)
  store i32 1, ptr %11, align 4
  br label %40

31:                                               ; preds = %23
  %32 = load ptr, ptr %9, align 8
  %33 = load ptr, ptr %8, align 8
  %34 = call i32 @gcry_mac_read(ptr noundef %32, ptr noundef %33, ptr noundef %10)
  %35 = icmp ne i32 %34, 0
  br i1 %35, label %36, label %38

36:                                               ; preds = %31
  %37 = load ptr, ptr %9, align 8
  call void @gcry_mac_close(ptr noundef %37)
  store i32 1, ptr %11, align 4
  br label %40

38:                                               ; preds = %31
  %39 = load ptr, ptr %9, align 8
  call void @gcry_mac_close(ptr noundef %39)
  store i32 0, ptr %11, align 4
  br label %40

40:                                               ; preds = %38, %36, %29, %21, %15
  call void @llvm.lifetime.end.p0(i64 8, ptr %10) #9
  call void @llvm.lifetime.end.p0(i64 8, ptr %9) #9
  %41 = load i32, ptr %11, align 4
  switch i32 %41, label %43 [
    i32 0, label %42
    i32 1, label %42
  ]

42:                                               ; preds = %40, %40
  ret void

43:                                               ; preds = %40
  unreachable
}