; Function Attrs: null_pointer_is_valid sspstrong uwtable
define hidden void @rf4ce_aes_cmac(ptr noundef %0, i64 noundef %1, ptr noundef %2, ptr noundef %3) local_unnamed_addr #6 {
  %5 = alloca ptr, align 8
  %6 = alloca i64, align 8
  call void @llvm.lifetime.start.p0(i64 8, ptr nonnull %5) #17
  call void @llvm.lifetime.start.p0(i64 8, ptr nonnull %6) #17
  store i64 %1, ptr %6, align 8
  %7 = call i32 @gcry_mac_open(ptr noundef nonnull %5, i32 noundef 201, i32 noundef 0, ptr noundef null)
  %.not = icmp eq i32 %7, 0
  br i1 %.not, label %8, label %18

8:                                                ; preds = %4
  %9 = load ptr, ptr %5, align 8
  %10 = call i32 @gcry_mac_setkey(ptr noundef %9, ptr noundef %2, i64 noundef 16)
  %.not4 = icmp eq i32 %10, 0
  %11 = load ptr, ptr %5, align 8
  br i1 %.not4, label %12, label %.sink.split

12:                                               ; preds = %8
  %13 = call i32 @gcry_mac_write(ptr noundef %11, ptr noundef %0, i64 noundef %1)
  %.not5 = icmp eq i32 %13, 0
  %14 = load ptr, ptr %5, align 8
  br i1 %.not5, label %15, label %.sink.split

15:                                               ; preds = %12
  %16 = call i32 @gcry_mac_read(ptr noundef %14, ptr noundef %3, ptr noundef nonnull %6)
  %17 = load ptr, ptr %5, align 8
  br label %.sink.split

.sink.split:                                      ; preds = %12, %8, %15
  %.sink = phi ptr [ %17, %15 ], [ %11, %8 ], [ %14, %12 ]
  call void @gcry_mac_close(ptr noundef %.sink)
  br label %18

18:                                               ; preds = %.sink.split, %4
  call void @llvm.lifetime.end.p0(i64 8, ptr nonnull %6) #17
  call void @llvm.lifetime.end.p0(i64 8, ptr nonnull %5) #17
  ret void
}